target datalayout = "e-m:e-p270:32:32-p271:32:32-p272:64:64-i64:64-i128:128-f80:128-n8:16:32:64-S128"
target triple = "x86_64-pc-linux-gnu"

%struct.H5P_genclass_t = type { ptr, ptr, i32, i64, i32, i32, i32, i8, i32, ptr, ptr, ptr, ptr, ptr, ptr, ptr }
%struct.H5P_check_class_t = type { ptr, ptr, ptr }

@H5P_init_g = external global i8, align 1
@H5_libterm_g = external global i8, align 1

; Function Attrs: nounwind uwtable
define internal i32 @H5P__open_class_path_cb(ptr noundef %0, i64 noundef %1, ptr noundef %2) #0 {
  %4 = alloca ptr, align 8
  %5 = alloca i64, align 8
  %6 = alloca ptr, align 8
  %7 = alloca ptr, align 8
  %8 = alloca ptr, align 8
  %9 = alloca i32, align 4
  store ptr %0, ptr %4, align 8, !tbaa !40
  store i64 %1, ptr %5, align 8, !tbaa !11
  store ptr %2, ptr %6, align 8, !tbaa !40
  call void @llvm.lifetime.start.p0(i64 8, ptr %7) #8
  %10 = load ptr, ptr %4, align 8, !tbaa !40
  store ptr %10, ptr %7, align 8, !tbaa !22
  call void @llvm.lifetime.start.p0(i64 8, ptr %8) #8
  %11 = load ptr, ptr %6, align 8, !tbaa !40
  store ptr %11, ptr %8, align 8, !tbaa !40
  call void @llvm.lifetime.start.p0(i64 4, ptr %9) #8
  store i32 0, ptr %9, align 4, !tbaa !3
  %12 = load i8, ptr @H5P_init_g, align 1, !tbaa !7, !range !9, !noundef !10
  %13 = trunc i8 %12 to i1
  br i1 %13, label %18, label %14

14:                                               ; preds = %3
  %15 = load i8, ptr @H5_libterm_g, align 1, !tbaa !7, !range !9, !noundef !10
  %16 = trunc i8 %15 to i1
  %17 = xor i1 %16, true
  br label %18

18:                                               ; preds = %14, %3
  %19 = phi i1 [ true, %3 ], [ %17, %14 ]
  %20 = xor i1 %19, true
  %21 = xor i1 %20, true
  %22 = zext i1 %21 to i32
  %23 = sext i32 %22 to i64
  %24 = call i64 @llvm.expect.i64(i64 %23, i64 1)
  %25 = icmp ne i64 %24, 0
  br i1 %25, label %26, label %49

26:                                               ; preds = %18
  %27 = load ptr, ptr %7, align 8, !tbaa !22
  %28 = getelementptr inbounds nuw %struct.H5P_genclass_t, ptr %27, i32 0, i32 0
  %29 = load ptr, ptr %28, align 8, !tbaa !41
  %30 = load ptr, ptr %8, align 8, !tbaa !40
  %31 = getelementptr inbounds nuw %struct.H5P_check_class_t, ptr %30, i32 0, i32 0
  %32 = load ptr, ptr %31, align 8, !tbaa !133
  %33 = icmp eq ptr %29, %32
  br i1 %33, label %34, label %48

34:                                               ; preds = %26
  %35 = load ptr, ptr %7, align 8, !tbaa !22
  %36 = getelementptr inbounds nuw %struct.H5P_genclass_t, ptr %35, i32 0, i32 1
  %37 = load ptr, ptr %36, align 8, !tbaa !44
  %38 = load ptr, ptr %8, align 8, !tbaa !40
  %39 = getelementptr inbounds nuw %struct.H5P_check_class_t, ptr %38, i32 0, i32 1
  %40 = load ptr, ptr %39, align 8, !tbaa !135
  %41 = call i32 @strcmp(ptr noundef %37, ptr noundef %40) #10
  %42 = icmp eq i32 %41, 0
  br i1 %42, label %43, label %47

43:                                               ; preds = %34
  %44 = load ptr, ptr %7, align 8, !tbaa !22
  %45 = load ptr, ptr %8, align 8, !tbaa !40
  %46 = getelementptr inbounds nuw %struct.H5P_check_class_t, ptr %45, i32 0, i32 2
  store ptr %44, ptr %46, align 8, !tbaa !136
  store i32 1, ptr %9, align 4, !tbaa !3
  br label %47

47:                                               ; preds = %43, %34
  br label %48

48:                                               ; preds = %47, %26
  br label %49

49:                                               ; preds = %48, %18
  %50 = load i32, ptr %9, align 4, !tbaa !3
  call void @llvm.lifetime.end.p0(i64 4, ptr %9) #8
  call void @llvm.lifetime.end.p0(i64 8, ptr %8) #8
  call void @llvm.lifetime.end.p0(i64 8, ptr %7) #8
  ret i32 %50
}