; Function Attrs: mustprogress nofree nounwind willreturn memory(read, argmem: readwrite, inaccessiblemem: none) uwtable
define internal range(i32 0, 2) i32 @H5P__open_class_path_cb(ptr noundef %0, i64 %1, ptr noundef captures(none) %2) #9 {
  %4 = load i8, ptr @H5P_init_g, align 1, !tbaa !3, !range !7, !noundef !8
  %5 = trunc nuw i8 %4 to i1
  %6 = load i8, ptr @H5_libterm_g, align 1, !range !7
  %7 = trunc nuw i8 %6 to i1
  %8 = xor i1 %7, true
  %9 = select i1 %5, i1 true, i1 %8
  br i1 %9, label %10, label %23, !prof !9

10:                                               ; preds = %3
  %11 = load ptr, ptr %0, align 8, !tbaa !38
  %12 = load ptr, ptr %2, align 8, !tbaa !122
  %13 = icmp eq ptr %11, %12
  br i1 %13, label %14, label %23

14:                                               ; preds = %10
  %15 = getelementptr inbounds nuw i8, ptr %0, i64 8
  %16 = load ptr, ptr %15, align 8, !tbaa !41
  %17 = getelementptr inbounds nuw i8, ptr %2, i64 8
  %18 = load ptr, ptr %17, align 8, !tbaa !124
  %19 = tail call i32 @strcmp(ptr noundef nonnull dereferenceable(1) %16, ptr noundef nonnull dereferenceable(1) %18) #16
  %20 = icmp eq i32 %19, 0
  br i1 %20, label %21, label %23

21:                                               ; preds = %14
  %22 = getelementptr inbounds nuw i8, ptr %2, i64 16
  store ptr %0, ptr %22, align 8, !tbaa !125
  br label %23

23:                                               ; preds = %10, %21, %14, %3
  %.0 = phi i32 [ 1, %21 ], [ 0, %14 ], [ 0, %10 ], [ 0, %3 ]
  ret i32 %.0
}